target datalayout = "e-m:e-p270:32:32-p271:32:32-p272:64:64-i64:64-i128:128-f80:128-n8:16:32:64-S128"
target triple = "x86_64-pc-linux-gnu"

%struct.getKeysResult = type { i32, i32, [6 x %struct.keyReference], ptr }
%struct.keyReference = type { i32, i32 }

; Function Attrs: nounwind uwtable
define dso_local void @getKeysFreeResult(ptr noundef %0) #0 {
  %2 = alloca ptr, align 8
  store ptr %0, ptr %2, align 8, !tbaa !22
  %3 = load ptr, ptr %2, align 8, !tbaa !22
  %4 = icmp ne ptr %3, null
  br i1 %4, label %5, label %17

5:                                                ; preds = %1
  %6 = load ptr, ptr %2, align 8, !tbaa !22
  %7 = getelementptr inbounds nuw %struct.getKeysResult, ptr %6, i32 0, i32 3
  %8 = load ptr, ptr %7, align 8, !tbaa !209
  %9 = load ptr, ptr %2, align 8, !tbaa !22
  %10 = getelementptr inbounds nuw %struct.getKeysResult, ptr %9, i32 0, i32 2
  %11 = getelementptr inbounds [6 x %struct.keyReference], ptr %10, i64 0, i64 0
  %12 = icmp ne ptr %8, %11
  br i1 %12, label %13, label %17

13:                                               ; preds = %5
  %14 = load ptr, ptr %2, align 8, !tbaa !22
  %15 = getelementptr inbounds nuw %struct.getKeysResult, ptr %14, i32 0, i32 3
  %16 = load ptr, ptr %15, align 8, !tbaa !209
  call void @zfree(ptr noundef %16)
  br label %17

17:                                               ; preds = %13, %5, %1
  ret void
}