; Function Attrs: nounwind uwtable
define dso_local void @getKeysFreeResult(ptr noundef readonly captures(address) %0) local_unnamed_addr #0 {
  %.not = icmp eq ptr %0, null
  br i1 %.not, label %7, label %2

2:                                                ; preds = %1
  %3 = getelementptr inbounds nuw i8, ptr %0, i64 56
  %4 = load ptr, ptr %3, align 8, !tbaa !175
  %5 = getelementptr inbounds nuw i8, ptr %0, i64 8
  %.not5 = icmp eq ptr %4, %5
  br i1 %.not5, label %7, label %6

6:                                                ; preds = %2
  tail call void @zfree(ptr noundef %4) #20
  br label %7

7:                                                ; preds = %6, %2, %1
  ret void
}